target datalayout = "e-m:e-p270:32:32-p271:32:32-p272:64:64-i64:64-i128:128-f80:128-n8:16:32:64-S128"
target triple = "x86_64-pc-linux-gnu"

@.str = private unnamed_addr constant [26 x i8] c"invalid config format: %s\00", align 1
@.str.1 = private unnamed_addr constant [59 x i8] c"missing environment variable name for configuration '%.*s'\00", align 1
@.str.2 = private unnamed_addr constant [59 x i8] c"missing environment variable '%s' for configuration '%.*s'\00", align 1

; Function Attrs: nounwind uwtable
define dso_local void @git_config_push_env(ptr noundef %0) #0 {
  %2 = alloca ptr, align 8
  %3 = alloca ptr, align 8
  %4 = alloca ptr, align 8
  %5 = alloca ptr, align 8
  store ptr %0, ptr %2, align 8, !tbaa !4
  call void @llvm.lifetime.start.p0(i64 8, ptr %3) #13
  call void @llvm.lifetime.start.p0(i64 8, ptr %4) #13
  call void @llvm.lifetime.start.p0(i64 8, ptr %5) #13
  %6 = load ptr, ptr %2, align 8, !tbaa !4
  %7 = call ptr @strrchr(ptr noundef %6, i32 noundef 61) #14
  store ptr %7, ptr %4, align 8, !tbaa !4
  %8 = load ptr, ptr %4, align 8, !tbaa !4
  %9 = icmp ne ptr %8, null
  br i1 %9, label %13, label %10

10:                                               ; preds = %1
  %11 = call ptr @_(ptr noundef @.str)
  %12 = load ptr, ptr %2, align 8, !tbaa !4
  call void (ptr, ...) @die(ptr noundef %11, ptr noundef %12) #15
  unreachable

13:                                               ; preds = %1
  %14 = load ptr, ptr %2, align 8, !tbaa !4
  %15 = load ptr, ptr %4, align 8, !tbaa !4
  %16 = load ptr, ptr %2, align 8, !tbaa !4
  %17 = ptrtoint ptr %15 to i64
  %18 = ptrtoint ptr %16 to i64
  %19 = sub i64 %17, %18
  %20 = call ptr @xmemdupz(ptr noundef %14, i64 noundef %19)
  store ptr %20, ptr %3, align 8, !tbaa !4
  %21 = load ptr, ptr %4, align 8, !tbaa !4
  %22 = getelementptr inbounds nuw i8, ptr %21, i32 1
  store ptr %22, ptr %4, align 8, !tbaa !4
  %23 = load ptr, ptr %4, align 8, !tbaa !4
  %24 = load i8, ptr %23, align 1, !tbaa !9
  %25 = icmp ne i8 %24, 0
  br i1 %25, label %36, label %26

26:                                               ; preds = %13
  %27 = call ptr @_(ptr noundef @.str.1)
  %28 = load ptr, ptr %4, align 8, !tbaa !4
  %29 = load ptr, ptr %2, align 8, !tbaa !4
  %30 = ptrtoint ptr %28 to i64
  %31 = ptrtoint ptr %29 to i64
  %32 = sub i64 %30, %31
  %33 = sub nsw i64 %32, 1
  %34 = trunc i64 %33 to i32
  %35 = load ptr, ptr %2, align 8, !tbaa !4
  call void (ptr, ...) @die(ptr noundef %27, i32 noundef %34, ptr noundef %35) #15
  unreachable

36:                                               ; preds = %13
  %37 = load ptr, ptr %4, align 8, !tbaa !4
  %38 = call ptr @getenv(ptr noundef %37) #13
  store ptr %38, ptr %5, align 8, !tbaa !4
  %39 = load ptr, ptr %5, align 8, !tbaa !4
  %40 = icmp ne ptr %39, null
  br i1 %40, label %52, label %41

41:                                               ; preds = %36
  %42 = call ptr @_(ptr noundef @.str.2)
  %43 = load ptr, ptr %4, align 8, !tbaa !4
  %44 = load ptr, ptr %4, align 8, !tbaa !4
  %45 = load ptr, ptr %2, align 8, !tbaa !4
  %46 = ptrtoint ptr %44 to i64
  %47 = ptrtoint ptr %45 to i64
  %48 = sub i64 %46, %47
  %49 = sub nsw i64 %48, 1
  %50 = trunc i64 %49 to i32
  %51 = load ptr, ptr %2, align 8, !tbaa !4
  call void (ptr, ...) @die(ptr noundef %42, ptr noundef %43, i32 noundef %50, ptr noundef %51) #15
  unreachable

52:                                               ; preds = %36
  %53 = load ptr, ptr %3, align 8, !tbaa !4
  %54 = load ptr, ptr %5, align 8, !tbaa !4
  call void @git_config_push_split_parameter(ptr noundef %53, ptr noundef %54)
  %55 = load ptr, ptr %3, align 8, !tbaa !4
  call void @free(ptr noundef %55) #13
  call void @llvm.lifetime.end.p0(i64 8, ptr %5) #13
  call void @llvm.lifetime.end.p0(i64 8, ptr %4) #13
  call void @llvm.lifetime.end.p0(i64 8, ptr %3) #13
  ret void
}