; Function Attrs: nounwind uwtable
define dso_local void @git_config_push_env(ptr noundef %0) local_unnamed_addr #0 {
  %2 = tail call ptr @strrchr(ptr noundef nonnull dereferenceable(1) %0, i32 noundef 61) #29
  %.not = icmp eq ptr %2, null
  br i1 %.not, label %3, label %5

3:                                                ; preds = %1
  %4 = tail call fastcc ptr @_(ptr noundef nonnull @.str)
  tail call void (ptr, ...) @die(ptr noundef %4, ptr noundef nonnull %0) #31
  unreachable

5:                                                ; preds = %1
  %6 = ptrtoint ptr %2 to i64
  %7 = ptrtoint ptr %0 to i64
  %8 = sub i64 %6, %7
  %9 = tail call ptr @xmemdupz(ptr noundef nonnull %0, i64 noundef %8) #30
  %10 = getelementptr inbounds nuw i8, ptr %2, i64 1
  %11 = load i8, ptr %10, align 1, !tbaa !4
  %.not21 = icmp eq i8 %11, 0
  br i1 %.not21, label %12, label %18

12:                                               ; preds = %5
  %13 = tail call fastcc ptr @_(ptr noundef nonnull @.str.1)
  %14 = ptrtoint ptr %10 to i64
  %15 = xor i64 %7, -1
  %16 = add i64 %14, %15
  %17 = trunc i64 %16 to i32
  tail call void (ptr, ...) @die(ptr noundef %13, i32 noundef %17, ptr noundef nonnull %0) #31
  unreachable

18:                                               ; preds = %5
  %19 = tail call ptr @getenv(ptr noundef nonnull %10) #30
  %.not22 = icmp eq ptr %19, null
  br i1 %.not22, label %20, label %26

20:                                               ; preds = %18
  %21 = tail call fastcc ptr @_(ptr noundef nonnull @.str.2)
  %22 = ptrtoint ptr %10 to i64
  %23 = xor i64 %7, -1
  %24 = add i64 %22, %23
  %25 = trunc i64 %24 to i32
  tail call void (ptr, ...) @die(ptr noundef %21, ptr noundef nonnull %10, i32 noundef %25, ptr noundef nonnull %0) #31
  unreachable

26:                                               ; preds = %18
  tail call fastcc void @git_config_push_split_parameter(ptr noundef %9, ptr noundef nonnull %19)
  tail call void @free(ptr noundef %9) #30
  ret void
}